target datalayout = "e-m:e-p270:32:32-p271:32:32-p272:64:64-i64:64-i128:128-f80:128-n8:16:32:64-S128"
target triple = "x86_64-pc-linux-gnu"

%class.ZVirtualMemoryManager = type <{ %class.ZMemoryManager, i64, i8, [7 x i8] }>
%class.ZMemoryManager = type { %class.ZLock, %class.ZList, %"struct.ZMemoryManager::Callbacks" }
%class.ZLock = type { %class.PlatformMutex }
%class.PlatformMutex = type { %union.pthread_mutex_t }
%union.pthread_mutex_t = type { %struct.__pthread_mutex_s }
%struct.__pthread_mutex_s = type { i32, i32, i32, i32, i32, i16, i16, %struct.__pthread_internal_list }
%struct.__pthread_internal_list = type { ptr, ptr }
%class.ZList = type { %class.ZListNode, i64 }
%class.ZListNode = type { ptr, ptr }
%"struct.ZMemoryManager::Callbacks" = type { ptr, ptr, ptr, ptr, ptr, ptr }

@ZAddressHeapBase = external global i64, align 8

; Function Attrs: mustprogress nounwind uwtable
define linkonce_odr hidden void @_Z15assert_is_valid15zaddress_unsafe(i64 noundef %0) #1 comdat {
  %2 = alloca i64, align 8
  store i64 %0, ptr %2, align 8
  ret void
}

; Function Attrs: mustprogress nounwind uwtable
define linkonce_odr hidden noundef i64 @_Z18to_zaddress_unsafem(i64 noundef %0) #1 comdat {
  %2 = alloca i64, align 8
  %3 = alloca i64, align 8
  store i64 %0, ptr %2, align 8
  %4 = load i64, ptr %2, align 8
  store i64 %4, ptr %3, align 8
  %5 = load i64, ptr %3, align 8
  call void @_Z15assert_is_valid15zaddress_unsafe(i64 noundef %5)
  %6 = load i64, ptr %3, align 8
  ret i64 %6
}

; Function Attrs: mustprogress nounwind uwtable
define linkonce_odr hidden noundef i64 @_Z6untype7zoffset(i64 noundef %0) #1 comdat {
  %2 = alloca i64, align 8
  %3 = alloca i64, align 8
  store i64 %0, ptr %2, align 8
  %4 = load i64, ptr %2, align 8
  store i64 %4, ptr %3, align 8
  %5 = load i64, ptr %3, align 8
  ret i64 %5
}

; Function Attrs: mustprogress nounwind uwtable
define linkonce_odr hidden noundef i64 @_ZN7ZOffset14address_unsafeE7zoffset(i64 noundef %0) #1 comdat align 2 {
  %2 = alloca i64, align 8
  store i64 %0, ptr %2, align 8
  %3 = load i64, ptr %2, align 8
  %4 = call noundef i64 @_Z6untype7zoffset(i64 noundef %3)
  %5 = load i64, ptr @ZAddressHeapBase, align 8
  %6 = or i64 %4, %5
  %7 = call noundef i64 @_Z18to_zaddress_unsafem(i64 noundef %6)
  ret i64 %7
}

; Function Attrs: mustprogress nounwind uwtable
define hidden noundef zeroext i1 @_ZN21ZVirtualMemoryManager18reserve_contiguousE7zoffsetm(ptr noundef nonnull align 8 dereferenceable(121) %0, i64 noundef %1, i64 noundef %2) #1 align 2 {
  %4 = alloca i1, align 1
  %5 = alloca ptr, align 8
  %6 = alloca i64, align 8
  %7 = alloca i64, align 8
  %8 = alloca i64, align 8
  store ptr %0, ptr %5, align 8
  store i64 %1, ptr %6, align 8
  store i64 %2, ptr %7, align 8
  %9 = load ptr, ptr %5, align 8
  %10 = load i64, ptr %6, align 8
  %11 = call noundef i64 @_ZN7ZOffset14address_unsafeE7zoffset(i64 noundef %10)
  store i64 %11, ptr %8, align 8
  %12 = load i64, ptr %8, align 8
  %13 = load i64, ptr %7, align 8
  %14 = call noundef zeroext i1 @_ZN21ZVirtualMemoryManager10pd_reserveE15zaddress_unsafem(ptr noundef nonnull align 8 dereferenceable(121) %9, i64 noundef %12, i64 noundef %13)
  br i1 %14, label %16, label %15

15:                                               ; preds = %3
  store i1 false, ptr %4, align 1
  br label %22

16:                                               ; preds = %3
  %17 = load i64, ptr %8, align 8
  %18 = load i64, ptr %7, align 8
  call void @_ZN4ZNMT7reserveE15zaddress_unsafem(i64 noundef %17, i64 noundef %18)
  %19 = getelementptr inbounds %class.ZVirtualMemoryManager, ptr %9, i32 0, i32 0
  %20 = load i64, ptr %6, align 8
  %21 = load i64, ptr %7, align 8
  call void @_ZN14ZMemoryManager4freeE7zoffsetm(ptr noundef nonnull align 8 dereferenceable(112) %19, i64 noundef %20, i64 noundef %21)
  store i1 true, ptr %4, align 1
  br label %22

22:                                               ; preds = %16, %15
  %23 = load i1, ptr %4, align 1
  ret i1 %23
}