; Function Attrs: mustprogress nounwind uwtable
define hidden noundef zeroext i1 @_ZN21ZVirtualMemoryManager18reserve_contiguousE7zoffsetm(ptr noundef nonnull align 8 dereferenceable(121) %0, i64 noundef %1, i64 noundef %2) local_unnamed_addr #0 align 2 {
  %4 = load i64, ptr @ZAddressHeapBase, align 8
  %5 = or i64 %4, %1
  %6 = tail call noundef zeroext i1 @_ZN21ZVirtualMemoryManager10pd_reserveE15zaddress_unsafem(ptr noundef nonnull align 8 dereferenceable(121) %0, i64 noundef %5, i64 noundef %2) #7
  br i1 %6, label %7, label %8

7:                                                ; preds = %3
  tail call void @_ZN4ZNMT7reserveE15zaddress_unsafem(i64 noundef %5, i64 noundef %2) #7
  tail call void @_ZN14ZMemoryManager4freeE7zoffsetm(ptr noundef nonnull align 8 dereferenceable(112) %0, i64 noundef %1, i64 noundef %2) #7
  br label %8

8:                                                ; preds = %3, %7
  ret i1 %6
}